target datalayout = "e-m:e-p270:32:32-p271:32:32-p272:64:64-i64:64-i128:128-f80:128-n8:16:32:64-S128"
target triple = "x86_64-pc-linux-gnu"

%"struct.pkpy::LinkedListNode" = type { ptr, ptr }
%"struct.pkpy::MemoryPool.0" = type { %"struct.pkpy::DoubleLinkedList.1", %"struct.pkpy::DoubleLinkedList.1" }
%"struct.pkpy::DoubleLinkedList.1" = type { i32, %"struct.pkpy::LinkedListNode", %"struct.pkpy::LinkedListNode" }

@_ZN4pkpyL7pool128E = internal global %"struct.pkpy::MemoryPool.0" zeroinitializer, align 8

; Function Attrs: mustprogress nounwind uwtable
define noundef ptr @_ZN4pkpy13pool128_allocEm(i64 noundef %0) #5 personality ptr @__gxx_personality_v0 {
  %2 = alloca i64, align 8
  store i64 %0, ptr %2, align 8
  %3 = load i64, ptr %2, align 8
  %4 = invoke noundef ptr @_ZN4pkpy10MemoryPoolILi128EE5allocEm(ptr noundef nonnull align 8 dereferenceable(80) @_ZN4pkpyL7pool128E, i64 noundef %3)
          to label %5 unwind label %6

5:                                                ; preds = %1
  ret ptr %4

6:                                                ; preds = %1
  %7 = landingpad { ptr, i32 }
          catch ptr null
  %8 = extractvalue { ptr, i32 } %7, 0
  call void @__clang_call_terminate(ptr %8) #12
  unreachable
}